target datalayout = "e-m:e-p270:32:32-p271:32:32-p272:64:64-i64:64-i128:128-f80:128-n8:16:32:64-S128"
target triple = "x86_64-pc-linux-gnu"

%struct.AVProbeData = type { ptr, ptr, i32, ptr }

; Function Attrs: alwaysinline nounwind willreturn memory(none) uwtable
define internal zeroext i16 @av_bswap16(i16 noundef zeroext %0) #10 {
  %2 = alloca i16, align 2
  store i16 %0, ptr %2, align 2, !tbaa !146
  %3 = load i16, ptr %2, align 2, !tbaa !146
  %4 = zext i16 %3 to i32
  %5 = ashr i32 %4, 8
  %6 = load i16, ptr %2, align 2, !tbaa !146
  %7 = zext i16 %6 to i32
  %8 = shl i32 %7, 8
  %9 = or i32 %5, %8
  %10 = trunc i32 %9 to i16
  store i16 %10, ptr %2, align 2, !tbaa !146
  %11 = load i16, ptr %2, align 2, !tbaa !146
  ret i16 %11
}

; Function Attrs: nounwind uwtable
define internal i32 @psd_probe(ptr noundef %0) #0 {
  %2 = alloca i32, align 4
  %3 = alloca ptr, align 8
  %4 = alloca ptr, align 8
  %5 = alloca i32, align 4
  %6 = alloca i16, align 2
  %7 = alloca i32, align 4
  store ptr %0, ptr %3, align 8, !tbaa !139
  call void @llvm.lifetime.start.p0(i64 8, ptr %4) #12
  %8 = load ptr, ptr %3, align 8, !tbaa !139
  %9 = getelementptr inbounds nuw %struct.AVProbeData, ptr %8, i32 0, i32 1
  %10 = load ptr, ptr %9, align 8, !tbaa !96
  store ptr %10, ptr %4, align 8, !tbaa !76
  call void @llvm.lifetime.start.p0(i64 4, ptr %5) #12
  store i32 0, ptr %5, align 4, !tbaa !28
  call void @llvm.lifetime.start.p0(i64 2, ptr %6) #12
  %11 = load ptr, ptr %4, align 8, !tbaa !76
  %12 = load i32, ptr %11, align 1, !tbaa !77
  %13 = icmp eq i32 %12, 1397768760
  br i1 %13, label %14, label %17

14:                                               ; preds = %1
  %15 = load i32, ptr %5, align 4, !tbaa !28
  %16 = add nsw i32 %15, 1
  store i32 %16, ptr %5, align 4, !tbaa !28
  br label %18

17:                                               ; preds = %1
  store i32 0, ptr %2, align 4
  store i32 1, ptr %7, align 4
  br label %70

18:                                               ; preds = %14
  %19 = load ptr, ptr %4, align 8, !tbaa !76
  %20 = getelementptr inbounds i8, ptr %19, i64 4
  %21 = load i8, ptr %20, align 1, !tbaa !77
  %22 = zext i8 %21 to i32
  %23 = icmp eq i32 %22, 0
  br i1 %23, label %24, label %33

24:                                               ; preds = %18
  %25 = load ptr, ptr %4, align 8, !tbaa !76
  %26 = getelementptr inbounds i8, ptr %25, i64 5
  %27 = load i8, ptr %26, align 1, !tbaa !77
  %28 = zext i8 %27 to i32
  %29 = icmp eq i32 %28, 1
  br i1 %29, label %30, label %33

30:                                               ; preds = %24
  %31 = load i32, ptr %5, align 4, !tbaa !28
  %32 = add nsw i32 %31, 1
  store i32 %32, ptr %5, align 4, !tbaa !28
  br label %34

33:                                               ; preds = %24, %18
  store i32 0, ptr %2, align 4
  store i32 1, ptr %7, align 4
  br label %70

34:                                               ; preds = %30
  %35 = load ptr, ptr %4, align 8, !tbaa !76
  %36 = getelementptr inbounds i8, ptr %35, i64 6
  %37 = load i32, ptr %36, align 1, !tbaa !77
  %38 = icmp eq i32 %37, 0
  br i1 %38, label %39, label %48

39:                                               ; preds = %34
  %40 = load ptr, ptr %4, align 8, !tbaa !76
  %41 = getelementptr inbounds i8, ptr %40, i64 10
  %42 = load i16, ptr %41, align 1, !tbaa !77
  %43 = zext i16 %42 to i32
  %44 = icmp eq i32 %43, 0
  br i1 %44, label %45, label %48

45:                                               ; preds = %39
  %46 = load i32, ptr %5, align 4, !tbaa !28
  %47 = add nsw i32 %46, 1
  store i32 %47, ptr %5, align 4, !tbaa !28
  br label %48

48:                                               ; preds = %45, %39, %34
  %49 = load ptr, ptr %4, align 8, !tbaa !76
  %50 = getelementptr inbounds i8, ptr %49, i64 24
  %51 = load i16, ptr %50, align 1, !tbaa !77
  %52 = call zeroext i16 @av_bswap16(i16 noundef zeroext %51) #15
  store i16 %52, ptr %6, align 2, !tbaa !146
  %53 = load i16, ptr %6, align 2, !tbaa !146
  %54 = zext i16 %53 to i32
  %55 = icmp sle i32 %54, 9
  br i1 %55, label %56, label %67

56:                                               ; preds = %48
  %57 = load i16, ptr %6, align 2, !tbaa !146
  %58 = zext i16 %57 to i32
  %59 = icmp ne i32 %58, 5
  br i1 %59, label %60, label %67

60:                                               ; preds = %56
  %61 = load i16, ptr %6, align 2, !tbaa !146
  %62 = zext i16 %61 to i32
  %63 = icmp ne i32 %62, 6
  br i1 %63, label %64, label %67

64:                                               ; preds = %60
  %65 = load i32, ptr %5, align 4, !tbaa !28
  %66 = add nsw i32 %65, 1
  store i32 %66, ptr %5, align 4, !tbaa !28
  br label %67

67:                                               ; preds = %64, %60, %56, %48
  %68 = load i32, ptr %5, align 4, !tbaa !28
  %69 = add nsw i32 50, %68
  store i32 %69, ptr %2, align 4
  store i32 1, ptr %7, align 4
  br label %70

70:                                               ; preds = %67, %33, %17
  call void @llvm.lifetime.end.p0(i64 2, ptr %6) #12
  call void @llvm.lifetime.end.p0(i64 4, ptr %5) #12
  call void @llvm.lifetime.end.p0(i64 8, ptr %4) #12
  %71 = load i32, ptr %2, align 4
  ret i32 %71
}