; Function Attrs: mustprogress nofree norecurse nosync nounwind willreturn memory(read, inaccessiblemem: none) uwtable
define internal range(i32 0, 55) i32 @psd_probe(ptr noundef readonly captures(none) %0) #8 {
  %2 = getelementptr inbounds nuw i8, ptr %0, i64 8
  %3 = load ptr, ptr %2, align 8, !tbaa !90
  %4 = load i32, ptr %3, align 1, !tbaa !68
  %5 = icmp eq i32 %4, 1397768760
  br i1 %5, label %6, label %32

6:                                                ; preds = %1
  %7 = getelementptr inbounds nuw i8, ptr %3, i64 4
  %8 = load i8, ptr %7, align 1, !tbaa !68
  %9 = icmp eq i8 %8, 0
  br i1 %9, label %10, label %32

10:                                               ; preds = %6
  %11 = getelementptr inbounds nuw i8, ptr %3, i64 5
  %12 = load i8, ptr %11, align 1, !tbaa !68
  %13 = icmp eq i8 %12, 1
  br i1 %13, label %14, label %32

14:                                               ; preds = %10
  %15 = getelementptr inbounds nuw i8, ptr %3, i64 6
  %16 = load i32, ptr %15, align 1, !tbaa !68
  %17 = icmp eq i32 %16, 0
  br i1 %17, label %18, label %23

18:                                               ; preds = %14
  %19 = getelementptr inbounds nuw i8, ptr %3, i64 10
  %20 = load i16, ptr %19, align 1, !tbaa !68
  %21 = icmp eq i16 %20, 0
  %22 = select i1 %21, i32 53, i32 52
  br label %23

23:                                               ; preds = %18, %14
  %.020 = phi i32 [ 52, %14 ], [ %22, %18 ]
  %24 = getelementptr inbounds nuw i8, ptr %3, i64 24
  %25 = load i16, ptr %24, align 1, !tbaa !68
  %26 = tail call i16 @llvm.bswap.i16(i16 %25)
  %27 = icmp ult i16 %26, 10
  %28 = add i16 %26, -7
  %29 = icmp ult i16 %28, -2
  %or.cond5 = and i1 %27, %29
  %30 = zext i1 %or.cond5 to i32
  %31 = add nuw nsw i32 %.020, %30
  br label %32

32:                                               ; preds = %6, %10, %1, %23
  %.0 = phi i32 [ %31, %23 ], [ 0, %1 ], [ 0, %10 ], [ 0, %6 ]
  ret i32 %.0
}